; Function Attrs: mustprogress uwtable
define noundef signext i8 @_ZN9UPerfTest8callTestERS_Pc(ptr noundef nonnull align 8 dereferenceable(160) %0, ptr noundef nonnull align 8 dereferenceable(160) initializes((116, 117), (144, 160)) %1, ptr noundef %2) unnamed_addr #3 align 2 {
  %4 = load i32, ptr @_ZL9execCount, align 4, !tbaa !41
  %5 = add nsw i32 %4, -1
  store i32 %5, ptr @_ZL9execCount, align 4, !tbaa !41
  %6 = getelementptr inbounds nuw i8, ptr %1, i64 144
  store ptr %0, ptr %6, align 8, !tbaa !62
  %7 = getelementptr inbounds nuw i8, ptr %0, i64 116
  %8 = load i8, ptr %7, align 4, !tbaa !38
  %9 = getelementptr inbounds nuw i8, ptr %1, i64 116
  store i8 %8, ptr %9, align 4, !tbaa !38
  %10 = getelementptr inbounds nuw i8, ptr %0, i64 152
  %11 = load ptr, ptr %10, align 8, !tbaa !51
  %12 = tail call noundef signext i8 @_ZN9UPerfTest7runTestEPcS0_(ptr noundef nonnull align 8 dereferenceable(160) %1, ptr noundef %11, ptr noundef %2)
  ret i8 %12
}